ARM GAS  /tmp/ccUFN2w6.s 			page 1


   1              		.syntax unified
   2              		.cpu cortex-m0
   3              		.fpu softvfp
   4              		.eabi_attribute 20, 1	@ Tag_ABI_FP_denormal
   5              		.eabi_attribute 21, 1	@ Tag_ABI_FP_exceptions
   6              		.eabi_attribute 23, 3	@ Tag_ABI_FP_number_model
   7              		.eabi_attribute 24, 1	@ Tag_ABI_align8_needed
   8              		.eabi_attribute 25, 1	@ Tag_ABI_align8_preserved
   9              		.eabi_attribute 26, 1	@ Tag_ABI_enum_size
  10              		.eabi_attribute 30, 6	@ Tag_ABI_optimization_goals
  11              		.eabi_attribute 34, 0	@ Tag_CPU_unaligned_access
  12              		.eabi_attribute 18, 4	@ Tag_ABI_PCS_wchar_t
  13              		.file	"main.c"
  14              	@ GNU C11 (GNU Tools for ARM Embedded Processors) version 5.4.1 20160919 (release) [ARM/embedded-5-
  15              	@	compiled by GNU C version 4.7.4, GMP version 4.3.2, MPFR version 2.4.2, MPC version 0.8.1
  16              	@ GGC heuristics: --param ggc-min-expand=100 --param ggc-min-heapsize=131072
  17              	@ options passed:  -I . -I ./inc -imultilib armv6-m
  18              	@ -iprefix /srv/gcc-arm-none-eabi-5_4-2016q3/bin/../lib/gcc/arm-none-eabi/5.4.1/
  19              	@ -isysroot /srv/gcc-arm-none-eabi-5_4-2016q3/bin/../arm-none-eabi
  20              	@ -MD code/main.d -MF .dep/main.o.d -MP -MQ code/main.o -D__USES_INITFINI__
  21              	@ -D RUN_FROM_FLASH=1 code/main.c -mcpu=cortex-m0 -mthumb
  22              	@ -auxbase-strip code/main.o -gdwarf-2 -O0 -Wall -Wstrict-prototypes
  23              	@ -fomit-frame-pointer -fverbose-asm
  24              	@ options enabled:  -faggressive-loop-optimizations -fauto-inc-dec
  25              	@ -fchkp-check-incomplete-type -fchkp-check-read -fchkp-check-write
  26              	@ -fchkp-instrument-calls -fchkp-narrow-bounds -fchkp-optimize
  27              	@ -fchkp-store-bounds -fchkp-use-static-bounds
  28              	@ -fchkp-use-static-const-bounds -fchkp-use-wrappers -fcommon
  29              	@ -fdelete-null-pointer-checks -fdwarf2-cfi-asm -fearly-inlining
  30              	@ -feliminate-unused-debug-types -ffunction-cse -fgcse-lm -fgnu-runtime
  31              	@ -fgnu-unique -fident -finline-atomics -fira-hoist-pressure
  32              	@ -fira-share-save-slots -fira-share-spill-slots -fivopts
  33              	@ -fkeep-static-consts -fleading-underscore -flifetime-dse
  34              	@ -flto-odr-type-merging -fmath-errno -fmerge-debug-strings
  35              	@ -fomit-frame-pointer -fpeephole -fprefetch-loop-arrays
  36              	@ -freg-struct-return -fsched-critical-path-heuristic
  37              	@ -fsched-dep-count-heuristic -fsched-group-heuristic -fsched-interblock
  38              	@ -fsched-last-insn-heuristic -fsched-rank-heuristic -fsched-spec
  39              	@ -fsched-spec-insn-heuristic -fsched-stalled-insns-dep
  40              	@ -fsemantic-interposition -fshow-column -fsigned-zeros
  41              	@ -fsplit-ivs-in-unroller -fstdarg-opt -fstrict-volatile-bitfields
  42              	@ -fsync-libcalls -ftrapping-math -ftree-coalesce-vars -ftree-cselim
  43              	@ -ftree-forwprop -ftree-loop-if-convert -ftree-loop-im -ftree-loop-ivcanon
  44              	@ -ftree-loop-optimize -ftree-parallelize-loops= -ftree-phiprop
  45              	@ -ftree-reassoc -ftree-scev-cprop -funit-at-a-time -fverbose-asm
  46              	@ -fzero-initialized-in-bss -mlittle-endian -mpic-data-is-text-relative
  47              	@ -msched-prolog -mthumb -mvectorize-with-neon-quad
  48              	
  49              		.text
  50              	.Ltext0:
  51              		.cfi_sections	.debug_frame
  52              		.global	SW_REGS
  53              		.data
  54              		.align	2
  55              		.type	SW_REGS, %object
  56              		.size	SW_REGS, 4
  57              	SW_REGS:
ARM GAS  /tmp/ccUFN2w6.s 			page 2


  58 0000 00000040 		.word	1073741824
  59              		.global	OUT_REGS
  60              		.align	2
  61              		.type	OUT_REGS, %object
  62              		.size	OUT_REGS, 4
  63              	OUT_REGS:
  64 0004 00000050 		.word	1342177280
  65              		.text
  66              		.align	2
  67              		.global	write_out_0
  68              		.code	16
  69              		.thumb_func
  70              		.type	write_out_0, %function
  71              	write_out_0:
  72              	.LFB0:
  73              		.file 1 "code/main.c"
   1:code/main.c   **** #define __MAIN_C__
   2:code/main.c   **** 
   3:code/main.c   **** #include <stdint.h>
   4:code/main.c   **** #include <stdbool.h>
   5:code/main.c   **** 
   6:code/main.c   **** // Define the raw base address values for the i/o devices
   7:code/main.c   **** 
   8:code/main.c   **** #define AHB_SW_BASE                             0x40000000
   9:code/main.c   **** #define AHB_OUT_BASE                            0x50000000
  10:code/main.c   **** 
  11:code/main.c   **** // Define pointers with correct type for access to 32-bit i/o devices
  12:code/main.c   **** //
  13:code/main.c   **** // The locations in the devices can then be accessed as:
  14:code/main.c   **** //    SW_REGS[0]
  15:code/main.c   **** //    SW_REGS[1]
  16:code/main.c   **** //    SW_REGS[2]
  17:code/main.c   **** //    OUT_REGS[0]
  18:code/main.c   **** //    OUT_REGS[1]
  19:code/main.c   **** //
  20:code/main.c   **** volatile uint32_t* SW_REGS = (volatile uint32_t*) AHB_SW_BASE;
  21:code/main.c   **** volatile uint32_t* OUT_REGS = (volatile uint32_t*) AHB_OUT_BASE;
  22:code/main.c   **** 
  23:code/main.c   **** #include <stdint.h>
  24:code/main.c   **** 
  25:code/main.c   **** //////////////////////////////////////////////////////////////////
  26:code/main.c   **** // Functions provided to access i/o devices
  27:code/main.c   **** //////////////////////////////////////////////////////////////////
  28:code/main.c   **** 
  29:code/main.c   **** void write_out_0(uint32_t value_0) {
  74              		.loc 1 29 0
  75              		.cfi_startproc
  76              		@ args = 0, pretend = 0, frame = 8
  77              		@ frame_needed = 0, uses_anonymous_args = 0
  78              		@ link register save eliminated.
  79 0000 82B0     		sub	sp, sp, #8	@,,
  80              	.LCFI0:
  81              		.cfi_def_cfa_offset 8
  82 0002 0190     		str	r0, [sp, #4]	@ value_0, value_0
  30:code/main.c   **** 
  31:code/main.c   ****   OUT_REGS[0] = value_0;
  83              		.loc 1 31 0
ARM GAS  /tmp/ccUFN2w6.s 			page 3


  84 0004 034B     		ldr	r3, .L2	@ tmp111,
  85 0006 1B68     		ldr	r3, [r3]	@ D.4300, OUT_REGS
  86 0008 019A     		ldr	r2, [sp, #4]	@ tmp112, value_0
  87 000a 1A60     		str	r2, [r3]	@ tmp112, *_2
  32:code/main.c   **** 
  33:code/main.c   **** }
  88              		.loc 1 33 0
  89 000c C046     		nop
  90 000e 02B0     		add	sp, sp, #8	@,,
  91              		@ sp needed	@
  92 0010 7047     		bx	lr
  93              	.L3:
  94 0012 C046     		.align	2
  95              	.L2:
  96 0014 00000000 		.word	OUT_REGS
  97              		.cfi_endproc
  98              	.LFE0:
  99              		.size	write_out_0, .-write_out_0
 100              		.align	2
 101              		.global	write_out_1
 102              		.code	16
 103              		.thumb_func
 104              		.type	write_out_1, %function
 105              	write_out_1:
 106              	.LFB1:
  34:code/main.c   **** void write_out_1(uint32_t value_1) {
 107              		.loc 1 34 0
 108              		.cfi_startproc
 109              		@ args = 0, pretend = 0, frame = 8
 110              		@ frame_needed = 0, uses_anonymous_args = 0
 111              		@ link register save eliminated.
 112 0018 82B0     		sub	sp, sp, #8	@,,
 113              	.LCFI1:
 114              		.cfi_def_cfa_offset 8
 115 001a 0190     		str	r0, [sp, #4]	@ value_1, value_1
  35:code/main.c   **** 
  36:code/main.c   ****   OUT_REGS[2] = value_1;
 116              		.loc 1 36 0
 117 001c 034B     		ldr	r3, .L5	@ tmp112,
 118 001e 1B68     		ldr	r3, [r3]	@ D.4301, OUT_REGS
 119 0020 0833     		adds	r3, r3, #8	@ D.4301,
 120 0022 019A     		ldr	r2, [sp, #4]	@ tmp113, value_1
 121 0024 1A60     		str	r2, [r3]	@ tmp113, *_3
  37:code/main.c   **** 
  38:code/main.c   **** }
 122              		.loc 1 38 0
 123 0026 C046     		nop
 124 0028 02B0     		add	sp, sp, #8	@,,
 125              		@ sp needed	@
 126 002a 7047     		bx	lr
 127              	.L6:
 128              		.align	2
 129              	.L5:
 130 002c 00000000 		.word	OUT_REGS
 131              		.cfi_endproc
 132              	.LFE1:
 133              		.size	write_out_1, .-write_out_1
ARM GAS  /tmp/ccUFN2w6.s 			page 4


 134              		.align	2
 135              		.global	write_out_2
 136              		.code	16
 137              		.thumb_func
 138              		.type	write_out_2, %function
 139              	write_out_2:
 140              	.LFB2:
  39:code/main.c   **** void write_out_2(uint32_t value_2) {
 141              		.loc 1 39 0
 142              		.cfi_startproc
 143              		@ args = 0, pretend = 0, frame = 8
 144              		@ frame_needed = 0, uses_anonymous_args = 0
 145              		@ link register save eliminated.
 146 0030 82B0     		sub	sp, sp, #8	@,,
 147              	.LCFI2:
 148              		.cfi_def_cfa_offset 8
 149 0032 0190     		str	r0, [sp, #4]	@ value_2, value_2
  40:code/main.c   **** 
  41:code/main.c   ****   OUT_REGS[4] = value_2;
 150              		.loc 1 41 0
 151 0034 034B     		ldr	r3, .L8	@ tmp112,
 152 0036 1B68     		ldr	r3, [r3]	@ D.4302, OUT_REGS
 153 0038 1033     		adds	r3, r3, #16	@ D.4302,
 154 003a 019A     		ldr	r2, [sp, #4]	@ tmp113, value_2
 155 003c 1A60     		str	r2, [r3]	@ tmp113, *_3
  42:code/main.c   **** 
  43:code/main.c   **** }
 156              		.loc 1 43 0
 157 003e C046     		nop
 158 0040 02B0     		add	sp, sp, #8	@,,
 159              		@ sp needed	@
 160 0042 7047     		bx	lr
 161              	.L9:
 162              		.align	2
 163              	.L8:
 164 0044 00000000 		.word	OUT_REGS
 165              		.cfi_endproc
 166              	.LFE2:
 167              		.size	write_out_2, .-write_out_2
 168              		.align	2
 169              		.global	write_out_3
 170              		.code	16
 171              		.thumb_func
 172              		.type	write_out_3, %function
 173              	write_out_3:
 174              	.LFB3:
  44:code/main.c   **** void write_out_3(uint32_t value_3) {
 175              		.loc 1 44 0
 176              		.cfi_startproc
 177              		@ args = 0, pretend = 0, frame = 8
 178              		@ frame_needed = 0, uses_anonymous_args = 0
 179              		@ link register save eliminated.
 180 0048 82B0     		sub	sp, sp, #8	@,,
 181              	.LCFI3:
 182              		.cfi_def_cfa_offset 8
 183 004a 0190     		str	r0, [sp, #4]	@ value_3, value_3
  45:code/main.c   **** 
ARM GAS  /tmp/ccUFN2w6.s 			page 5


  46:code/main.c   ****   OUT_REGS[6] = value_3;
 184              		.loc 1 46 0
 185 004c 034B     		ldr	r3, .L11	@ tmp112,
 186 004e 1B68     		ldr	r3, [r3]	@ D.4303, OUT_REGS
 187 0050 1833     		adds	r3, r3, #24	@ D.4303,
 188 0052 019A     		ldr	r2, [sp, #4]	@ tmp113, value_3
 189 0054 1A60     		str	r2, [r3]	@ tmp113, *_3
  47:code/main.c   **** 
  48:code/main.c   **** }
 190              		.loc 1 48 0
 191 0056 C046     		nop
 192 0058 02B0     		add	sp, sp, #8	@,,
 193              		@ sp needed	@
 194 005a 7047     		bx	lr
 195              	.L12:
 196              		.align	2
 197              	.L11:
 198 005c 00000000 		.word	OUT_REGS
 199              		.cfi_endproc
 200              	.LFE3:
 201              		.size	write_out_3, .-write_out_3
 202              		.align	2
 203              		.global	set_out_invalid
 204              		.code	16
 205              		.thumb_func
 206              		.type	set_out_invalid, %function
 207              	set_out_invalid:
 208              	.LFB4:
  49:code/main.c   **** void set_out_invalid(void) {
 209              		.loc 1 49 0
 210              		.cfi_startproc
 211              		@ args = 0, pretend = 0, frame = 0
 212              		@ frame_needed = 0, uses_anonymous_args = 0
 213              		@ link register save eliminated.
  50:code/main.c   **** 	
  51:code/main.c   ****   OUT_REGS[6] = 0;
 214              		.loc 1 51 0
 215 0060 0A4B     		ldr	r3, .L14	@ tmp117,
 216 0062 1B68     		ldr	r3, [r3]	@ D.4304, OUT_REGS
 217 0064 1833     		adds	r3, r3, #24	@ D.4304,
 218 0066 0022     		movs	r2, #0	@ tmp118,
 219 0068 1A60     		str	r2, [r3]	@ tmp118, *_3
  52:code/main.c   ****   OUT_REGS[4] = 0;
 220              		.loc 1 52 0
 221 006a 084B     		ldr	r3, .L14	@ tmp119,
 222 006c 1B68     		ldr	r3, [r3]	@ D.4304, OUT_REGS
 223 006e 1033     		adds	r3, r3, #16	@ D.4304,
 224 0070 0022     		movs	r2, #0	@ tmp120,
 225 0072 1A60     		str	r2, [r3]	@ tmp120, *_6
  53:code/main.c   ****   OUT_REGS[2] = 0;
 226              		.loc 1 53 0
 227 0074 054B     		ldr	r3, .L14	@ tmp121,
 228 0076 1B68     		ldr	r3, [r3]	@ D.4304, OUT_REGS
 229 0078 0833     		adds	r3, r3, #8	@ D.4304,
 230 007a 0022     		movs	r2, #0	@ tmp122,
 231 007c 1A60     		str	r2, [r3]	@ tmp122, *_9
  54:code/main.c   ****   OUT_REGS[0] = 0;
ARM GAS  /tmp/ccUFN2w6.s 			page 6


 232              		.loc 1 54 0
 233 007e 034B     		ldr	r3, .L14	@ tmp123,
 234 0080 1B68     		ldr	r3, [r3]	@ D.4304, OUT_REGS
 235 0082 0022     		movs	r2, #0	@ tmp124,
 236 0084 1A60     		str	r2, [r3]	@ tmp124, *_11
  55:code/main.c   **** 
  56:code/main.c   **** }
 237              		.loc 1 56 0
 238 0086 C046     		nop
 239              		@ sp needed	@
 240 0088 7047     		bx	lr
 241              	.L15:
 242 008a C046     		.align	2
 243              	.L14:
 244 008c 00000000 		.word	OUT_REGS
 245              		.cfi_endproc
 246              	.LFE4:
 247              		.size	set_out_invalid, .-set_out_invalid
 248              		.align	2
 249              		.global	read_out
 250              		.code	16
 251              		.thumb_func
 252              		.type	read_out, %function
 253              	read_out:
 254              	.LFB5:
  57:code/main.c   **** 
  58:code/main.c   **** uint32_t read_out(void) {
 255              		.loc 1 58 0
 256              		.cfi_startproc
 257              		@ args = 0, pretend = 0, frame = 0
 258              		@ frame_needed = 0, uses_anonymous_args = 0
 259              		@ link register save eliminated.
  59:code/main.c   **** 
  60:code/main.c   ****   return OUT_REGS[0];
 260              		.loc 1 60 0
 261 0090 024B     		ldr	r3, .L18	@ tmp113,
 262 0092 1B68     		ldr	r3, [r3]	@ D.4305, OUT_REGS
 263 0094 1B68     		ldr	r3, [r3]	@ D.4306, *_2
  61:code/main.c   ****   return OUT_REGS[2];
  62:code/main.c   ****   return OUT_REGS[4];
  63:code/main.c   ****   return OUT_REGS[6];  
  64:code/main.c   **** }
 264              		.loc 1 64 0
 265 0096 1800     		movs	r0, r3	@, <retval>
 266              		@ sp needed	@
 267 0098 7047     		bx	lr
 268              	.L19:
 269 009a C046     		.align	2
 270              	.L18:
 271 009c 00000000 		.word	OUT_REGS
 272              		.cfi_endproc
 273              	.LFE5:
 274              		.size	read_out, .-read_out
 275              		.align	2
 276              		.global	read_switches
 277              		.code	16
 278              		.thumb_func
ARM GAS  /tmp/ccUFN2w6.s 			page 7


 279              		.type	read_switches, %function
 280              	read_switches:
 281              	.LFB6:
  65:code/main.c   **** 
  66:code/main.c   **** uint32_t read_switches(int addr) {
 282              		.loc 1 66 0
 283              		.cfi_startproc
 284              		@ args = 0, pretend = 0, frame = 8
 285              		@ frame_needed = 0, uses_anonymous_args = 0
 286              		@ link register save eliminated.
 287 00a0 82B0     		sub	sp, sp, #8	@,,
 288              	.LCFI4:
 289              		.cfi_def_cfa_offset 8
 290 00a2 0190     		str	r0, [sp, #4]	@ addr, addr
  67:code/main.c   **** 
  68:code/main.c   ****   return SW_REGS[addr];
 291              		.loc 1 68 0
 292 00a4 044B     		ldr	r3, .L22	@ tmp116,
 293 00a6 1A68     		ldr	r2, [r3]	@ D.4307, SW_REGS
 294 00a8 019B     		ldr	r3, [sp, #4]	@ D.4308, addr
 295 00aa 9B00     		lsls	r3, r3, #2	@ D.4308, D.4308,
 296 00ac D318     		adds	r3, r2, r3	@ D.4307, D.4307, D.4308
 297 00ae 1B68     		ldr	r3, [r3]	@ D.4309, *_6
  69:code/main.c   **** 
  70:code/main.c   **** }
 298              		.loc 1 70 0
 299 00b0 1800     		movs	r0, r3	@, <retval>
 300 00b2 02B0     		add	sp, sp, #8	@,,
 301              		@ sp needed	@
 302 00b4 7047     		bx	lr
 303              	.L23:
 304 00b6 C046     		.align	2
 305              	.L22:
 306 00b8 00000000 		.word	SW_REGS
 307              		.cfi_endproc
 308              	.LFE6:
 309              		.size	read_switches, .-read_switches
 310              		.align	2
 311              		.global	check_switches
 312              		.code	16
 313              		.thumb_func
 314              		.type	check_switches, %function
 315              	check_switches:
 316              	.LFB7:
  71:code/main.c   **** 
  72:code/main.c   **** bool check_switches(int addr) {
 317              		.loc 1 72 0
 318              		.cfi_startproc
 319              		@ args = 0, pretend = 0, frame = 16
 320              		@ frame_needed = 0, uses_anonymous_args = 0
 321              		@ link register save eliminated.
 322 00bc 84B0     		sub	sp, sp, #16	@,,
 323              	.LCFI5:
 324              		.cfi_def_cfa_offset 16
 325 00be 0190     		str	r0, [sp, #4]	@ addr, addr
  73:code/main.c   **** 
  74:code/main.c   ****   int status, switches_ready;
ARM GAS  /tmp/ccUFN2w6.s 			page 8


  75:code/main.c   ****   
  76:code/main.c   ****   status = SW_REGS[2];
 326              		.loc 1 76 0
 327 00c0 094B     		ldr	r3, .L26	@ tmp116,
 328 00c2 1B68     		ldr	r3, [r3]	@ D.4310, SW_REGS
 329 00c4 0833     		adds	r3, r3, #8	@ D.4310,
 330 00c6 1B68     		ldr	r3, [r3]	@ D.4311, *_3
 331 00c8 0393     		str	r3, [sp, #12]	@ D.4311, status
  77:code/main.c   ****   
  78:code/main.c   ****   // use the addr value to select one bit of the status register
  79:code/main.c   ****   switches_ready = (status >> addr) & 1;
 332              		.loc 1 79 0
 333 00ca 039A     		ldr	r2, [sp, #12]	@ tmp117, status
 334 00cc 019B     		ldr	r3, [sp, #4]	@ tmp118, addr
 335 00ce 1A41     		asrs	r2, r2, r3	@ tmp117, tmp117, tmp118
 336 00d0 1300     		movs	r3, r2	@ D.4312, tmp117
 337 00d2 0122     		movs	r2, #1	@ tmp120,
 338 00d4 1340     		ands	r3, r2	@ tmp119, tmp120
 339 00d6 0293     		str	r3, [sp, #8]	@ tmp119, switches_ready
  80:code/main.c   ****   
  81:code/main.c   ****   return (switches_ready == 1);
 340              		.loc 1 81 0
 341 00d8 029B     		ldr	r3, [sp, #8]	@ tmp122, switches_ready
 342 00da 013B     		subs	r3, r3, #1	@ tmp124,
 343 00dc 5A42     		rsbs	r2, r3, #0	@ tmp125, tmp124
 344 00de 5341     		adcs	r3, r3, r2	@ tmp123, tmp124, tmp125
 345 00e0 DBB2     		uxtb	r3, r3	@ D.4313, tmp121
  82:code/main.c   **** 
  83:code/main.c   **** }
 346              		.loc 1 83 0
 347 00e2 1800     		movs	r0, r3	@, <retval>
 348 00e4 04B0     		add	sp, sp, #16	@,,
 349              		@ sp needed	@
 350 00e6 7047     		bx	lr
 351              	.L27:
 352              		.align	2
 353              	.L26:
 354 00e8 00000000 		.word	SW_REGS
 355              		.cfi_endproc
 356              	.LFE7:
 357              		.size	check_switches, .-check_switches
 358              		.align	2
 359              		.global	wait_for_any_switch_data
 360              		.code	16
 361              		.thumb_func
 362              		.type	wait_for_any_switch_data, %function
 363              	wait_for_any_switch_data:
 364              	.LFB8:
  84:code/main.c   **** 
  85:code/main.c   **** void wait_for_any_switch_data(void) {
 365              		.loc 1 85 0
 366              		.cfi_startproc
 367              		@ args = 0, pretend = 0, frame = 0
 368              		@ frame_needed = 0, uses_anonymous_args = 0
 369              		@ link register save eliminated.
  86:code/main.c   **** 
  87:code/main.c   ****   // this is a 'busy wait'
ARM GAS  /tmp/ccUFN2w6.s 			page 9


  88:code/main.c   **** 
  89:code/main.c   ****   //  ( it should only be used if there is nothing
  90:code/main.c   ****   //   else for the embedded system to do )
  91:code/main.c   **** 
  92:code/main.c   ****   while ( SW_REGS[2] == 0 );
 370              		.loc 1 92 0
 371 00ec C046     		nop
 372              	.L29:
 373              		.loc 1 92 0 is_stmt 0 discriminator 1
 374 00ee 044B     		ldr	r3, .L31	@ tmp113,
 375 00f0 1B68     		ldr	r3, [r3]	@ D.4314, SW_REGS
 376 00f2 0833     		adds	r3, r3, #8	@ D.4314,
 377 00f4 1B68     		ldr	r3, [r3]	@ D.4315, *_3
 378 00f6 002B     		cmp	r3, #0	@ D.4315,
 379 00f8 F9D0     		beq	.L29	@,
  93:code/main.c   ****   
  94:code/main.c   ****   return;
 380              		.loc 1 94 0 is_stmt 1
 381 00fa C046     		nop
  95:code/main.c   **** 
  96:code/main.c   **** }
 382              		.loc 1 96 0
 383              		@ sp needed	@
 384 00fc 7047     		bx	lr
 385              	.L32:
 386 00fe C046     		.align	2
 387              	.L31:
 388 0100 00000000 		.word	SW_REGS
 389              		.cfi_endproc
 390              	.LFE8:
 391              		.size	wait_for_any_switch_data, .-wait_for_any_switch_data
 392              		.align	2
 393              		.global	main
 394              		.code	16
 395              		.thumb_func
 396              		.type	main, %function
 397              	main:
 398              	.LFB9:
  97:code/main.c   **** 
  98:code/main.c   **** 
  99:code/main.c   **** //////////////////////////////////////////////////////////////////
 100:code/main.c   **** // Main Function
 101:code/main.c   **** //////////////////////////////////////////////////////////////////
 102:code/main.c   **** 
 103:code/main.c   **** int main(void) {
 399              		.loc 1 103 0
 400              		.cfi_startproc
 401              		@ args = 0, pretend = 0, frame = 0
 402              		@ frame_needed = 0, uses_anonymous_args = 0
 403 0104 10B5     		push	{r4, lr}	@
 404              	.LCFI6:
 405              		.cfi_def_cfa_offset 8
 406              		.cfi_offset 4, -8
 407              		.cfi_offset 14, -4
 104:code/main.c   **** 
 105:code/main.c   ****   write_out_0( 0x000 ); 
 408              		.loc 1 105 0
ARM GAS  /tmp/ccUFN2w6.s 			page 10


 409 0106 0020     		movs	r0, #0	@,
 410 0108 FFF7FEFF 		bl	write_out_0	@
 106:code/main.c   ****   write_out_1( 0x140 );
 411              		.loc 1 106 0
 412 010c A023     		movs	r3, #160	@ tmp115,
 413 010e 5B00     		lsls	r3, r3, #1	@ tmp112, tmp115,
 414 0110 1800     		movs	r0, r3	@, tmp112
 415 0112 FFF7FEFF 		bl	write_out_1	@
 107:code/main.c   ****   write_out_2( 0x000 );
 416              		.loc 1 107 0
 417 0116 0020     		movs	r0, #0	@,
 418 0118 FFF7FEFF 		bl	write_out_2	@
 108:code/main.c   ****   write_out_3( 0x140 );  
 419              		.loc 1 108 0
 420 011c A023     		movs	r3, #160	@ tmp116,
 421 011e 5B00     		lsls	r3, r3, #1	@ tmp113, tmp116,
 422 0120 1800     		movs	r0, r3	@, tmp113
 423 0122 FFF7FEFF 		bl	write_out_3	@
 424 0126 0023     		movs	r3, #0	@ D.4316,
 109:code/main.c   **** 	
 110:code/main.c   ****     
 111:code/main.c   **** 
 112:code/main.c   **** 
 113:code/main.c   **** }
 425              		.loc 1 113 0
 426 0128 1800     		movs	r0, r3	@, <retval>
 427              		@ sp needed	@
 428 012a 10BD     		pop	{r4, pc}
 429              		.cfi_endproc
 430              	.LFE9:
 431              		.size	main, .-main
 432              	.Letext0:
 433              		.file 2 "/srv/gcc-arm-none-eabi-5_4-2016q3/arm-none-eabi/include/machine/_default_types.h"
 434              		.file 3 "/srv/gcc-arm-none-eabi-5_4-2016q3/arm-none-eabi/include/sys/_stdint.h"